target datalayout = "e-m:e-p270:32:32-p271:32:32-p272:64:64-i64:64-i128:128-f80:128-n8:16:32:64-S128"
target triple = "x86_64-pc-linux-gnu"

%class.AddressEditorFrame = type { %class.AccordionFrame, ptr, ptr }
%class.AccordionFrame = type { %class.QFrame, i32, ptr }
%class.QFrame = type { %class.QWidget }
%class.QWidget = type { %class.QObject, %class.QPaintDevice.base, ptr }
%class.QObject = type { ptr, %class.QScopedPointer }
%class.QScopedPointer = type { ptr }
%class.QPaintDevice.base = type <{ ptr, i16 }>
%class.Ui_AddressEditorFrame = type { ptr, ptr, ptr, ptr, ptr, ptr, ptr, ptr, ptr, ptr }

; Function Attrs: mustprogress null_pointer_is_valid sspstrong uwtable
define void @_ZN18AddressEditorFrame13updateWidgetsEv(ptr noundef align 8 dereferenceable_or_null(72) %0) #0 align 2 {
  %2 = alloca ptr, align 8
  %3 = alloca i8, align 1
  store ptr %0, ptr %2, align 8
  %4 = load ptr, ptr %2, align 8
  call void @llvm.lifetime.start.p0(i64 1, ptr %3) #24
  store i8 0, ptr %3, align 1
  %5 = getelementptr inbounds nuw %class.AddressEditorFrame, ptr %4, i32 0, i32 1
  %6 = load ptr, ptr %5, align 8
  %7 = getelementptr inbounds nuw %class.Ui_AddressEditorFrame, ptr %6, i32 0, i32 4
  %8 = load ptr, ptr %7, align 8
  %9 = call noundef i32 @_ZNK9QComboBox5countEv(ptr noundef align 8 dereferenceable_or_null(40) %8)
  %10 = icmp sgt i32 %9, 0
  br i1 %10, label %11, label %12

11:                                               ; preds = %1
  store i8 1, ptr %3, align 1
  br label %12

12:                                               ; preds = %11, %1
  %13 = getelementptr inbounds nuw %class.AddressEditorFrame, ptr %4, i32 0, i32 1
  %14 = load ptr, ptr %13, align 8
  %15 = getelementptr inbounds nuw %class.Ui_AddressEditorFrame, ptr %14, i32 0, i32 9
  %16 = load ptr, ptr %15, align 8
  %17 = call noundef ptr @_ZNK16QDialogButtonBox6buttonENS_14StandardButtonE(ptr noundef align 8 dereferenceable_or_null(40) %16, i32 noundef 1024)
  %18 = load i8, ptr %3, align 1, !range !9, !noundef !10
  %19 = trunc i8 %18 to i1
  call void @_ZN7QWidget10setEnabledEb(ptr noundef align 8 dereferenceable_or_null(40) %17, i1 noundef zeroext %19)
  call void @llvm.lifetime.end.p0(i64 1, ptr %3) #24
  ret void
}

; Function Attrs: mustprogress null_pointer_is_valid sspstrong uwtable
define void @_ZN18AddressEditorFrame38on_addressComboBox_currentIndexChangedEi(ptr noundef align 8 dereferenceable_or_null(72) %0, i32 noundef %1) #0 align 2 {
  %3 = alloca ptr, align 8
  %4 = alloca i32, align 4
  store ptr %0, ptr %3, align 8
  store i32 %1, ptr %4, align 4
  %5 = load ptr, ptr %3, align 8
  call void @_ZN18AddressEditorFrame34displayPreviousUserDefinedHostnameEv(ptr noundef align 8 dereferenceable_or_null(72) %5)
  call void @_ZN18AddressEditorFrame13updateWidgetsEv(ptr noundef align 8 dereferenceable_or_null(72) %5)
  ret void
}