; Function Attrs: mustprogress null_pointer_is_valid sspstrong uwtable
define void @_ZN18AddressEditorFrame38on_addressComboBox_currentIndexChangedEi(ptr noundef readonly align 8 captures(none) dereferenceable_or_null(72) %0, i32 noundef %1) local_unnamed_addr #0 align 2 {
  tail call void @_ZN18AddressEditorFrame34displayPreviousUserDefinedHostnameEv(ptr noundef align 8 dereferenceable_or_null(72) %0)
  %3 = getelementptr inbounds nuw i8, ptr %0, i64 56
  %4 = load ptr, ptr %3, align 8
  %5 = getelementptr inbounds nuw i8, ptr %4, i64 32
  %6 = load ptr, ptr %5, align 8
  %7 = tail call noundef i32 @_ZNK9QComboBox5countEv(ptr noundef align 8 dereferenceable_or_null(40) %6)
  %8 = icmp sgt i32 %7, 0
  %9 = load ptr, ptr %3, align 8
  %10 = getelementptr inbounds nuw i8, ptr %9, i64 72
  %11 = load ptr, ptr %10, align 8
  %12 = tail call noundef ptr @_ZNK16QDialogButtonBox6buttonENS_14StandardButtonE(ptr noundef align 8 dereferenceable_or_null(40) %11, i32 noundef 1024)
  tail call void @_ZN7QWidget10setEnabledEb(ptr noundef align 8 dereferenceable_or_null(40) %12, i1 noundef zeroext %8)
  ret void
}